target datalayout = "e-m:e-p270:32:32-p271:32:32-p272:64:64-i64:64-i128:128-f80:128-n8:16:32:64-S128"
target triple = "x86_64-pc-linux-gnu"

%"class.duckdb_re2::StringPiece" = type { ptr, i64 }

; Function Attrs: inlinehint mustprogress nounwind uwtable
define linkonce_odr noundef nonnull align 8 dereferenceable(8) ptr @_ZSt3minImERKT_S2_S2_(ptr noundef nonnull align 8 dereferenceable(8) %0, ptr noundef nonnull align 8 dereferenceable(8) %1) #2 comdat {
  %3 = alloca ptr, align 8
  %4 = alloca ptr, align 8
  %5 = alloca ptr, align 8
  store ptr %0, ptr %4, align 8, !tbaa !15
  store ptr %1, ptr %5, align 8, !tbaa !15
  %6 = load ptr, ptr %5, align 8, !tbaa !15
  %7 = load i64, ptr %6, align 8, !tbaa !10
  %8 = load ptr, ptr %4, align 8, !tbaa !15
  %9 = load i64, ptr %8, align 8, !tbaa !10
  %10 = icmp ult i64 %7, %9
  br i1 %10, label %11, label %13

11:                                               ; preds = %2
  %12 = load ptr, ptr %5, align 8, !tbaa !15
  store ptr %12, ptr %3, align 8
  br label %15

13:                                               ; preds = %2
  %14 = load ptr, ptr %4, align 8, !tbaa !15
  store ptr %14, ptr %3, align 8
  br label %15

15:                                               ; preds = %13, %11
  %16 = load ptr, ptr %3, align 8
  ret ptr %16
}

; Function Attrs: mustprogress uwtable
define hidden noundef i64 @_ZNK10duckdb_re211StringPiece5rfindEcm(ptr noundef nonnull align 8 dereferenceable(16) %0, i8 noundef signext %1, i64 noundef %2) #0 align 2 {
  %4 = alloca i64, align 8
  %5 = alloca ptr, align 8
  %6 = alloca i8, align 1
  %7 = alloca i64, align 8
  %8 = alloca i64, align 8
  %9 = alloca i64, align 8
  %10 = alloca i32, align 4
  store ptr %0, ptr %5, align 8, !tbaa !3
  store i8 %1, ptr %6, align 1, !tbaa !17
  store i64 %2, ptr %7, align 8, !tbaa !10
  %11 = load ptr, ptr %5, align 8
  %12 = getelementptr inbounds nuw %"class.duckdb_re2::StringPiece", ptr %11, i32 0, i32 1
  %13 = load i64, ptr %12, align 8, !tbaa !12
  %14 = icmp ule i64 %13, 0
  br i1 %14, label %15, label %16

15:                                               ; preds = %3
  store i64 -1, ptr %4, align 8
  br label %43

16:                                               ; preds = %3
  call void @llvm.lifetime.start.p0(i64 8, ptr %8) #8
  call void @llvm.lifetime.start.p0(i64 8, ptr %9) #8
  %17 = load i64, ptr %7, align 8, !tbaa !10
  %18 = add i64 %17, 1
  store i64 %18, ptr %9, align 8, !tbaa !10
  %19 = getelementptr inbounds nuw %"class.duckdb_re2::StringPiece", ptr %11, i32 0, i32 1
  %20 = call noundef nonnull align 8 dereferenceable(8) ptr @_ZSt3minImERKT_S2_S2_(ptr noundef nonnull align 8 dereferenceable(8) %9, ptr noundef nonnull align 8 dereferenceable(8) %19)
  %21 = load i64, ptr %20, align 8, !tbaa !10
  call void @llvm.lifetime.end.p0(i64 8, ptr %9) #8
  store i64 %21, ptr %8, align 8, !tbaa !10
  br label %22

22:                                               ; preds = %39, %16
  %23 = load i64, ptr %8, align 8, !tbaa !10
  %24 = icmp ne i64 %23, 0
  br i1 %24, label %26, label %25

25:                                               ; preds = %22
  store i32 2, ptr %10, align 4
  br label %40

26:                                               ; preds = %22
  %27 = getelementptr inbounds nuw %"class.duckdb_re2::StringPiece", ptr %11, i32 0, i32 0
  %28 = load ptr, ptr %27, align 8, !tbaa !14
  %29 = load i64, ptr %8, align 8, !tbaa !10
  %30 = add i64 %29, -1
  store i64 %30, ptr %8, align 8, !tbaa !10
  %31 = getelementptr inbounds nuw i8, ptr %28, i64 %30
  %32 = load i8, ptr %31, align 1, !tbaa !17
  %33 = sext i8 %32 to i32
  %34 = load i8, ptr %6, align 1, !tbaa !17
  %35 = sext i8 %34 to i32
  %36 = icmp eq i32 %33, %35
  br i1 %36, label %37, label %39

37:                                               ; preds = %26
  %38 = load i64, ptr %8, align 8, !tbaa !10
  store i64 %38, ptr %4, align 8
  store i32 1, ptr %10, align 4
  br label %40

39:                                               ; preds = %26
  br label %22, !llvm.loop !18

40:                                               ; preds = %37, %25
  call void @llvm.lifetime.end.p0(i64 8, ptr %8) #8
  %41 = load i32, ptr %10, align 4
  switch i32 %41, label %45 [
    i32 2, label %42
    i32 1, label %43
  ]

42:                                               ; preds = %40
  store i64 -1, ptr %4, align 8
  br label %43

43:                                               ; preds = %42, %40, %15
  %44 = load i64, ptr %4, align 8
  ret i64 %44

45:                                               ; preds = %40
  unreachable
}