; Function Attrs: mustprogress nofree norecurse nosync nounwind willreturn memory(read, inaccessiblemem: none) uwtable
define hidden noundef i64 @_ZNK10duckdb_re211StringPiece5rfindEcm(ptr noundef nonnull readonly align 8 captures(none) dereferenceable(16) %0, i8 noundef signext %1, i64 noundef %2) local_unnamed_addr #5 align 2 {
  %4 = getelementptr inbounds nuw i8, ptr %0, i64 8
  %5 = load i64, ptr %4, align 8, !tbaa !3
  %6 = icmp eq i64 %5, 0
  br i1 %6, label %.loopexit, label %7

7:                                                ; preds = %3
  %8 = add i64 %2, 1
  %spec.select10 = tail call i64 @llvm.umin.i64(i64 %5, i64 %8)
  %9 = load ptr, ptr %0, align 8
  br label %select.unfold

select.unfold:                                    ; preds = %7, %10
  %.07 = phi i64 [ %11, %10 ], [ %spec.select10, %7 ]
  %.not = icmp eq i64 %.07, 0
  br i1 %.not, label %.loopexit, label %10

10:                                               ; preds = %select.unfold
  %11 = add i64 %.07, -1
  %12 = getelementptr inbounds nuw i8, ptr %9, i64 %11
  %13 = load i8, ptr %12, align 1, !tbaa !11
  %14 = icmp eq i8 %13, %1
  br i1 %14, label %.loopexit, label %select.unfold, !llvm.loop !16

.loopexit:                                        ; preds = %select.unfold, %10, %3
  %.08 = phi i64 [ -1, %3 ], [ %11, %10 ], [ -1, %select.unfold ]
  ret i64 %.08
}